; Function Attrs: mustprogress null_pointer_is_valid sspstrong uwtable
define void @_ZN23ResolvedAddressesDialog6saveAsEv(ptr noundef readonly align 8 captures(none) dereferenceable_or_null(176) %0) #2 align 2 personality ptr @__gxx_personality_v0 {
  %2 = alloca %class.QString, align 8
  %3 = getelementptr inbounds nuw i8, ptr %0, i64 72
  %4 = load ptr, ptr %3, align 8
  %5 = getelementptr inbounds nuw i8, ptr %4, i64 88
  %6 = load ptr, ptr %5, align 8
  %7 = tail call noundef ptr @_ZNK10QTabWidget13currentWidgetEv(ptr noundef align 8 dereferenceable_or_null(40) %6)
  %8 = icmp eq ptr %7, null
  br i1 %8, label %23, label %9

9:                                                ; preds = %1
  call void @llvm.lifetime.start.p0(i64 24, ptr nonnull %2) #18
  call void @llvm.memset.p0.i64(ptr noundef nonnull align 8 dereferenceable(24) dereferenceable_or_null(24) %2, i8 0, i64 24, i1 false)
  %10 = invoke noundef ptr @_Z20qt_qFindChild_helperPK7QObjectRK7QStringRK11QMetaObject6QFlagsIN2Qt15FindChildOptionEE(ptr noundef nonnull align 8 dereferenceable_or_null(16) %7, ptr noundef nonnull align 8 dereferenceable(24) %2, ptr noundef nonnull align 8 dereferenceable(56) @_ZN21ResolvedAddressesView16staticMetaObjectE, i32 1)
          to label %_ZNK7QObject9findChildIP21ResolvedAddressesViewEET_RK7QString6QFlagsIN2Qt15FindChildOptionEE.exit unwind label %16

_ZNK7QObject9findChildIP21ResolvedAddressesViewEET_RK7QString6QFlagsIN2Qt15FindChildOptionEE.exit: ; preds = %9
  %11 = load ptr, ptr %2, align 8
  %.not.i.i.i = icmp eq ptr %11, null
  br i1 %.not.i.i.i, label %_ZN7QStringD2Ev.exit, label %_ZN17QArrayDataPointerIDsE5derefEv.exit.i.i

_ZN17QArrayDataPointerIDsE5derefEv.exit.i.i:      ; preds = %_ZNK7QObject9findChildIP21ResolvedAddressesViewEET_RK7QString6QFlagsIN2Qt15FindChildOptionEE.exit
  %12 = atomicrmw sub ptr %11, i32 1 seq_cst, align 4
  %.not.i.i = icmp eq i32 %12, 1
  br i1 %.not.i.i, label %13, label %_ZN7QStringD2Ev.exit

13:                                               ; preds = %_ZN17QArrayDataPointerIDsE5derefEv.exit.i.i
  %14 = load ptr, ptr %2, align 8
  call void @_ZN10QArrayData10deallocateEPS_xx(ptr noundef %14, i64 noundef 2, i64 noundef 8) #18
  br label %_ZN7QStringD2Ev.exit

_ZN7QStringD2Ev.exit:                             ; preds = %_ZNK7QObject9findChildIP21ResolvedAddressesViewEET_RK7QString6QFlagsIN2Qt15FindChildOptionEE.exit, %_ZN17QArrayDataPointerIDsE5derefEv.exit.i.i, %13
  call void @llvm.lifetime.end.p0(i64 24, ptr nonnull %2) #18
  %15 = icmp eq ptr %10, null
  br i1 %15, label %23, label %22

16:                                               ; preds = %9
  %17 = landingpad { ptr, i32 }
          cleanup
  %18 = load ptr, ptr %2, align 8
  %.not.i.i.i7 = icmp eq ptr %18, null
  br i1 %.not.i.i.i7, label %_ZN7QStringD2Ev.exit10, label %_ZN17QArrayDataPointerIDsE5derefEv.exit.i.i8

_ZN17QArrayDataPointerIDsE5derefEv.exit.i.i8:     ; preds = %16
  %19 = atomicrmw sub ptr %18, i32 1 seq_cst, align 4
  %.not.i.i9 = icmp eq i32 %19, 1
  br i1 %.not.i.i9, label %20, label %_ZN7QStringD2Ev.exit10

20:                                               ; preds = %_ZN17QArrayDataPointerIDsE5derefEv.exit.i.i8
  %21 = load ptr, ptr %2, align 8
  call void @_ZN10QArrayData10deallocateEPS_xx(ptr noundef %21, i64 noundef 2, i64 noundef 8) #18
  br label %_ZN7QStringD2Ev.exit10

_ZN7QStringD2Ev.exit10:                           ; preds = %16, %_ZN17QArrayDataPointerIDsE5derefEv.exit.i.i8, %20
  call void @llvm.lifetime.end.p0(i64 24, ptr nonnull %2) #18
  resume { ptr, i32 } %17

22:                                               ; preds = %_ZN7QStringD2Ev.exit
  call void @_ZN21ResolvedAddressesView6saveAsEv(ptr noundef nonnull align 8 dereferenceable_or_null(48) %10)
  br label %23

23:                                               ; preds = %22, %_ZN7QStringD2Ev.exit, %1
  ret void
}